; Function Attrs: mustprogress nofree norecurse nosync nounwind willreturn memory(read, argmem: readwrite, inaccessiblemem: none) uwtable
define internal void @_ZL10reverse_3d6PJ_XYZP8PJconsts(ptr dead_on_unwind noalias writable writeonly sret(%struct.PJ_LPZ) align 8 captures(none) initializes((0, 24)) %0, ptr noundef readonly byval(%struct.PJ_XYZ) align 8 captures(none) %1, ptr noundef readonly captures(none) %2) #3 {
  %4 = getelementptr inbounds nuw i8, ptr %2, i64 88
  %5 = load ptr, ptr %4, align 8, !tbaa !40
  %.sroa.02.0.copyload = load double, ptr %1, align 8, !tbaa !68
  %.sroa.7.0..sroa_idx = getelementptr inbounds nuw i8, ptr %1, i64 8
  %.sroa.7.0.copyload = load double, ptr %.sroa.7.0..sroa_idx, align 8, !tbaa !68
  %.sroa.9.0..sroa_idx = getelementptr inbounds nuw i8, ptr %1, i64 16
  %.sroa.9.0.copyload = load double, ptr %.sroa.9.0..sroa_idx, align 8, !tbaa !68
  %6 = getelementptr inbounds nuw i8, ptr %5, i64 8
  %7 = load double, ptr %6, align 8, !tbaa !52
  %8 = fdiv double %.sroa.02.0.copyload, %7
  %9 = fdiv double %.sroa.7.0.copyload, %7
  %10 = getelementptr inbounds nuw i8, ptr %5, i64 16
  %11 = load double, ptr %10, align 8, !tbaa !53
  %12 = fdiv double %.sroa.9.0.copyload, %11
  store double %8, ptr %0, align 8, !tbaa !68
  %.sroa.7.0..sroa_idx4 = getelementptr inbounds nuw i8, ptr %0, i64 8
  store double %9, ptr %.sroa.7.0..sroa_idx4, align 8, !tbaa !68
  %.sroa.9.0..sroa_idx6 = getelementptr inbounds nuw i8, ptr %0, i64 16
  store double %12, ptr %.sroa.9.0..sroa_idx6, align 8, !tbaa !68
  ret void
}